target datalayout = "e-m:e-p270:32:32-p271:32:32-p272:64:64-i64:64-i128:128-f80:128-n8:16:32:64-S128"
target triple = "x86_64-pc-linux-gnu"

%struct._packet_info = type { ptr, ptr, i32, i32, %struct.nstime_t, %struct.nstime_t, %struct.nstime_t, i8, ptr, ptr, ptr, ptr, %struct._address, %struct._address, %struct._address, %struct._address, %struct._address, %struct._address, i32, ptr, i8, [3 x i8], %struct.anon, i32, i32, i32, i32, ptr, i8, ptr, ptr, i16, i16, i32, i32, i16, i32, i32, ptr, ptr, ptr, i8, i8, i16, i16, i16, i32, i16, i16, ptr, ptr, ptr, ptr, ptr, i32, i32 }
%struct.nstime_t = type { i64, i32 }
%struct._address = type { i32, i32, ptr, ptr }
%struct.anon = type { i8, [3 x i8] }

@ett_u3v_payload_cmd = internal global i32 0, align 4
@hf_u3v_time_to_completion = internal global i32 0, align 4
@hf_u3v_reserved = internal global i32 0, align 4
@hf_u3v_ccd_pending_ack = internal global i32 0, align 4
@.str.685 = private unnamed_addr constant [7 x i8] c" %d ms\00", align 1

; Function Attrs: null_pointer_is_valid sspstrong uwtable
define internal void @dissect_u3v_pending_ack(ptr noundef %0, ptr noundef %1, ptr noundef %2, i32 noundef %3, i32 noundef %4, ptr noundef %5, ptr noundef %6) #0 {
  %8 = alloca ptr, align 8
  %9 = alloca ptr, align 8
  %10 = alloca ptr, align 8
  %11 = alloca i32, align 4
  %12 = alloca i32, align 4
  %13 = alloca ptr, align 8
  %14 = alloca ptr, align 8
  %15 = alloca ptr, align 8
  %16 = alloca i32, align 4
  store ptr %0, ptr %8, align 8
  store ptr %1, ptr %9, align 8
  store ptr %2, ptr %10, align 8
  store i32 %3, ptr %11, align 4
  store i32 %4, ptr %12, align 4
  store ptr %5, ptr %13, align 8
  store ptr %6, ptr %14, align 8
  call void @llvm.lifetime.start.p0(i64 8, ptr %15) #6
  store ptr null, ptr %15, align 8
  call void @llvm.lifetime.start.p0(i64 4, ptr %16) #6
  %17 = load i32, ptr %11, align 4
  store i32 %17, ptr %16, align 4
  %18 = load ptr, ptr %10, align 8
  %19 = getelementptr inbounds nuw %struct._packet_info, ptr %18, i32 0, i32 1
  %20 = load ptr, ptr %19, align 8
  %21 = load ptr, ptr %9, align 8
  %22 = load i32, ptr %11, align 4
  %23 = add i32 %22, 2
  %24 = call zeroext i16 @tvb_get_letohs(ptr noundef %21, i32 noundef %23)
  %25 = zext i16 %24 to i32
  call void (ptr, i32, ptr, ...) @col_append_fstr(ptr noundef %20, i32 noundef 25, ptr noundef @.str.685, i32 noundef %25)
  %26 = load ptr, ptr %8, align 8
  %27 = load i32, ptr @hf_u3v_ccd_pending_ack, align 4
  %28 = load ptr, ptr %9, align 8
  %29 = load i32, ptr %11, align 4
  %30 = load i32, ptr %12, align 4
  %31 = call ptr @proto_tree_add_item(ptr noundef %26, i32 noundef %27, ptr noundef %28, i32 noundef %29, i32 noundef %30, i32 noundef 0)
  store ptr %31, ptr %15, align 8
  %32 = load ptr, ptr %15, align 8
  %33 = load i32, ptr @ett_u3v_payload_cmd, align 4
  %34 = call ptr @proto_item_add_subtree(ptr noundef %32, i32 noundef %33)
  store ptr %34, ptr %8, align 8
  %35 = load ptr, ptr %8, align 8
  %36 = load i32, ptr @hf_u3v_reserved, align 4
  %37 = load ptr, ptr %9, align 8
  %38 = load i32, ptr %16, align 4
  %39 = call ptr @proto_tree_add_item(ptr noundef %35, i32 noundef %36, ptr noundef %37, i32 noundef %38, i32 noundef 2, i32 noundef 0)
  %40 = load i32, ptr %16, align 4
  %41 = add i32 %40, 2
  store i32 %41, ptr %16, align 4
  %42 = load ptr, ptr %8, align 8
  %43 = load i32, ptr @hf_u3v_time_to_completion, align 4
  %44 = load ptr, ptr %9, align 8
  %45 = load i32, ptr %16, align 4
  %46 = call ptr @proto_tree_add_item(ptr noundef %42, i32 noundef %43, ptr noundef %44, i32 noundef %45, i32 noundef 2, i32 noundef -2147483648)
  call void @llvm.lifetime.end.p0(i64 4, ptr %16) #6
  call void @llvm.lifetime.end.p0(i64 8, ptr %15) #6
  ret void
}