; Function Attrs: null_pointer_is_valid sspstrong uwtable
define internal fastcc void @dissect_u3v_pending_ack(ptr noundef %0, ptr noundef %1, ptr %.8.val, i32 noundef range(i32 0, 65536) %2) unnamed_addr #0 {
  %4 = tail call zeroext i16 @tvb_get_letohs(ptr noundef %1, i32 noundef 14)
  %5 = zext i16 %4 to i32
  tail call void (ptr, i32, ptr, ...) @col_append_fstr(ptr noundef %.8.val, i32 noundef 25, ptr noundef nonnull @.str.685, i32 noundef %5)
  %6 = load i32, ptr @hf_u3v_ccd_pending_ack, align 4
  %7 = tail call ptr @proto_tree_add_item(ptr noundef %0, i32 noundef %6, ptr noundef %1, i32 noundef 12, i32 noundef %2, i32 noundef 0)
  %8 = load i32, ptr @ett_u3v_payload_cmd, align 4
  %9 = tail call ptr @proto_item_add_subtree(ptr noundef %7, i32 noundef %8)
  %10 = load i32, ptr @hf_u3v_reserved, align 4
  %11 = tail call ptr @proto_tree_add_item(ptr noundef %9, i32 noundef %10, ptr noundef %1, i32 noundef 12, i32 noundef 2, i32 noundef 0)
  %12 = load i32, ptr @hf_u3v_time_to_completion, align 4
  %13 = tail call ptr @proto_tree_add_item(ptr noundef %9, i32 noundef %12, ptr noundef %1, i32 noundef 14, i32 noundef 2, i32 noundef -2147483648)
  ret void
}